; Function Attrs: mustprogress uwtable
define void @_ZN2cv3Mat3eyeENS_5Size_IiEEi(ptr dead_on_unwind noalias writable sret(%"class.cv::MatExpr") align 8 %0, i64 %1, i32 noundef %2) local_unnamed_addr #8 align 2 personality ptr @__gxx_personality_v0 {
  %4 = alloca %"class.cv::utils::trace::details::Region", align 8
  call void @_ZN2cv5utils5trace7details6RegionC1ERKNS3_21LocationStaticStorageE(ptr noundef nonnull align 8 dereferenceable(12) %4, ptr noundef nonnull align 8 dereferenceable(32) @_ZZN2cv3Mat3eyeENS_5Size_IiEEiE26__cv_trace_location_fn1811)
  store ptr null, ptr %0, align 8
  %5 = getelementptr inbounds i8, ptr %0, i64 8
  store i32 0, ptr %5, align 8
  %6 = getelementptr inbounds i8, ptr %0, i64 16
  call void @_ZN2cv3MatC1Ev(ptr noundef nonnull align 8 dereferenceable(96) %6) #21
  %7 = getelementptr inbounds i8, ptr %0, i64 112
  call void @_ZN2cv3MatC1Ev(ptr noundef nonnull align 8 dereferenceable(96) %7) #21
  %8 = getelementptr inbounds i8, ptr %0, i64 208
  call void @_ZN2cv3MatC1Ev(ptr noundef nonnull align 8 dereferenceable(96) %8) #21
  %9 = getelementptr inbounds i8, ptr %0, i64 304
  call void @llvm.memset.p0.i64(ptr noundef nonnull align 8 dereferenceable(48) %9, i8 0, i64 48, i1 false)
  invoke void @_ZN2cv17MatOp_Initializer8makeExprERNS_7MatExprEiNS_5Size_IiEEid(ptr noundef nonnull align 8 dereferenceable(352) %0, i32 noundef 73, i64 %1, i32 noundef %2, double noundef 1.000000e+00)
          to label %12 unwind label %10

10:                                               ; preds = %3
  %11 = landingpad { ptr, i32 }
          cleanup
  call void @_ZN2cv7MatExprD2Ev(ptr noundef nonnull align 8 dereferenceable(352) %0) #21
  call void @_ZN2cv5utils5trace7details6RegionD2Ev(ptr noundef nonnull align 8 dereferenceable(12) %4) #21
  resume { ptr, i32 } %11

12:                                               ; preds = %3
  %13 = getelementptr inbounds i8, ptr %4, i64 8
  %14 = load i32, ptr %13, align 8
  %.not.i = icmp eq i32 %14, 0
  br i1 %.not.i, label %_ZN2cv5utils5trace7details6RegionD2Ev.exit, label %15

15:                                               ; preds = %12
  invoke void @_ZN2cv5utils5trace7details6Region7destroyEv(ptr noundef nonnull align 8 dereferenceable(12) %4)
          to label %_ZN2cv5utils5trace7details6RegionD2Ev.exit unwind label %16

16:                                               ; preds = %15
  %17 = landingpad { ptr, i32 }
          catch ptr null
  %18 = extractvalue { ptr, i32 } %17, 0
  call void @__clang_call_terminate(ptr %18) #20
  unreachable

_ZN2cv5utils5trace7details6RegionD2Ev.exit:       ; preds = %12, %15
  ret void
}